target datalayout = "e-m:e-p270:32:32-p271:32:32-p272:64:64-i64:64-i128:128-f80:128-n8:16:32:64-S128"
target triple = "x86_64-pc-linux-gnu"

@.str.1 = private unnamed_addr constant [5 x i8] c"fd.c\00", align 1
@.str.13 = private unnamed_addr constant [43 x i8] c"cannot create temporary directory \22%s\22: %m\00", align 1
@__func__.PathNameCreateTemporaryDir = private unnamed_addr constant [27 x i8] c"PathNameCreateTemporaryDir\00", align 1
@.str.14 = private unnamed_addr constant [46 x i8] c"cannot create temporary subdirectory \22%s\22: %m\00", align 1
@pg_dir_create_mode = external global i32, align 4

; Function Attrs: nounwind uwtable
define dso_local i32 @MakePGDirectory(ptr noundef %0) #0 {
  %2 = alloca ptr, align 8
  store ptr %0, ptr %2, align 8
  %3 = load ptr, ptr %2, align 8
  %4 = load i32, ptr @pg_dir_create_mode, align 4
  %5 = call i32 @mkdir(ptr noundef %3, i32 noundef %4) #14
  ret i32 %5
}

; Function Attrs: nounwind uwtable
define dso_local void @PathNameCreateTemporaryDir(ptr noundef %0, ptr noundef %1) #0 {
  %3 = alloca ptr, align 8
  %4 = alloca ptr, align 8
  store ptr %0, ptr %3, align 8
  store ptr %1, ptr %4, align 8
  %5 = load ptr, ptr %4, align 8
  %6 = call i32 @MakePGDirectory(ptr noundef %5)
  %7 = icmp slt i32 %6, 0
  br i1 %7, label %8, label %54

8:                                                ; preds = %2
  %9 = call ptr @__errno_location() #15
  %10 = load i32, ptr %9, align 4
  %11 = icmp eq i32 %10, 17
  br i1 %11, label %12, label %13

12:                                               ; preds = %8
  br label %54

13:                                               ; preds = %8
  %14 = load ptr, ptr %3, align 8
  %15 = call i32 @MakePGDirectory(ptr noundef %14)
  %16 = icmp slt i32 %15, 0
  br i1 %16, label %17, label %33

17:                                               ; preds = %13
  %18 = call ptr @__errno_location() #15
  %19 = load i32, ptr %18, align 4
  %20 = icmp ne i32 %19, 17
  br i1 %20, label %21, label %33

21:                                               ; preds = %17
  br label %22

22:                                               ; preds = %21
  br i1 true, label %23, label %25

23:                                               ; preds = %22
  %24 = call zeroext i1 @errstart_cold(i32 noundef 21, ptr noundef null) #16
  br i1 %24, label %27, label %31

25:                                               ; preds = %22
  %26 = call zeroext i1 @errstart(i32 noundef 21, ptr noundef null)
  br i1 %26, label %27, label %31

27:                                               ; preds = %25, %23
  %28 = call i32 @errcode_for_file_access()
  %29 = load ptr, ptr %3, align 8
  %30 = call i32 (ptr, ...) @errmsg(ptr noundef @.str.13, ptr noundef %29)
  call void @errfinish(ptr noundef @.str.1, i32 noundef 1675, ptr noundef @__func__.PathNameCreateTemporaryDir)
  br label %31

31:                                               ; preds = %27, %25, %23
  unreachable

32:                                               ; No predecessors!
  br label %33

33:                                               ; preds = %32, %17, %13
  %34 = load ptr, ptr %4, align 8
  %35 = call i32 @MakePGDirectory(ptr noundef %34)
  %36 = icmp slt i32 %35, 0
  br i1 %36, label %37, label %53

37:                                               ; preds = %33
  %38 = call ptr @__errno_location() #15
  %39 = load i32, ptr %38, align 4
  %40 = icmp ne i32 %39, 17
  br i1 %40, label %41, label %53

41:                                               ; preds = %37
  br label %42

42:                                               ; preds = %41
  br i1 true, label %43, label %45

43:                                               ; preds = %42
  %44 = call zeroext i1 @errstart_cold(i32 noundef 21, ptr noundef null) #16
  br i1 %44, label %47, label %51

45:                                               ; preds = %42
  %46 = call zeroext i1 @errstart(i32 noundef 21, ptr noundef null)
  br i1 %46, label %47, label %51

47:                                               ; preds = %45, %43
  %48 = call i32 @errcode_for_file_access()
  %49 = load ptr, ptr %4, align 8
  %50 = call i32 (ptr, ...) @errmsg(ptr noundef @.str.14, ptr noundef %49)
  call void @errfinish(ptr noundef @.str.1, i32 noundef 1682, ptr noundef @__func__.PathNameCreateTemporaryDir)
  br label %51

51:                                               ; preds = %47, %45, %43
  unreachable

52:                                               ; No predecessors!
  br label %53

53:                                               ; preds = %52, %37, %33
  br label %54

54:                                               ; preds = %12, %53, %2
  ret void
}