; Function Attrs: nounwind uwtable
define dso_local void @PathNameCreateTemporaryDir(ptr noundef %0, ptr noundef %1) local_unnamed_addr #0 {
  %3 = load i32, ptr @pg_dir_create_mode, align 4
  %4 = tail call noundef i32 @mkdir(ptr noundef readonly %1, i32 noundef %3) #25
  %5 = icmp slt i32 %4, 0
  br i1 %5, label %6, label %30

6:                                                ; preds = %2
  %7 = tail call ptr @__errno_location() #26
  %8 = load i32, ptr %7, align 4
  %9 = icmp eq i32 %8, 17
  br i1 %9, label %30, label %10

10:                                               ; preds = %6
  %11 = load i32, ptr @pg_dir_create_mode, align 4
  %12 = tail call noundef i32 @mkdir(ptr noundef readonly %0, i32 noundef %11) #25
  %13 = icmp slt i32 %12, 0
  br i1 %13, label %14, label %20

14:                                               ; preds = %10
  %15 = load i32, ptr %7, align 4
  %.not = icmp eq i32 %15, 17
  br i1 %.not, label %20, label %16

16:                                               ; preds = %14
  %17 = tail call zeroext i1 @errstart_cold(i32 noundef 21, ptr noundef null) #27
  tail call void @llvm.assume(i1 %17)
  %18 = tail call i32 @errcode_for_file_access() #25
  %19 = tail call i32 (ptr, ...) @errmsg(ptr noundef nonnull @.str.13, ptr noundef %0) #25
  tail call void @errfinish(ptr noundef nonnull @.str.1, i32 noundef 1675, ptr noundef nonnull @__func__.PathNameCreateTemporaryDir) #25
  unreachable

20:                                               ; preds = %14, %10
  %21 = load i32, ptr @pg_dir_create_mode, align 4
  %22 = tail call noundef i32 @mkdir(ptr noundef readonly %1, i32 noundef %21) #25
  %23 = icmp slt i32 %22, 0
  br i1 %23, label %24, label %30

24:                                               ; preds = %20
  %25 = load i32, ptr %7, align 4
  %.not5 = icmp eq i32 %25, 17
  br i1 %.not5, label %30, label %26

26:                                               ; preds = %24
  %27 = tail call zeroext i1 @errstart_cold(i32 noundef 21, ptr noundef null) #27
  tail call void @llvm.assume(i1 %27)
  %28 = tail call i32 @errcode_for_file_access() #25
  %29 = tail call i32 (ptr, ...) @errmsg(ptr noundef nonnull @.str.14, ptr noundef %1) #25
  tail call void @errfinish(ptr noundef nonnull @.str.1, i32 noundef 1682, ptr noundef nonnull @__func__.PathNameCreateTemporaryDir) #25
  unreachable

30:                                               ; preds = %20, %24, %6, %2
  ret void
}